; Function Attrs: nounwind uwtable
define void @Aig_ManChoiceEval(ptr noundef %0) local_unnamed_addr #4 {
  %2 = tail call noalias dereferenceable_or_null(16) ptr @malloc(i64 noundef 16) #23
  %3 = getelementptr inbounds nuw i8, ptr %2, i64 4
  store i32 0, ptr %3, align 4, !tbaa !12
  store i32 100, ptr %2, align 8, !tbaa !14
  %4 = tail call noalias dereferenceable_or_null(800) ptr @malloc(i64 noundef 800) #23
  %5 = getelementptr inbounds nuw i8, ptr %2, i64 8
  store ptr %4, ptr %5, align 8, !tbaa !15
  %6 = getelementptr inbounds nuw i8, ptr %0, i64 32
  %7 = load ptr, ptr %6, align 8, !tbaa !54
  %8 = getelementptr i8, ptr %7, i64 4
  %.val3347 = load i32, ptr %8, align 4, !tbaa !12
  %9 = icmp sgt i32 %.val3347, 0
  br i1 %9, label %.lr.ph, label %.critedge

.lr.ph:                                           ; preds = %1
  %10 = getelementptr i8, ptr %0, i64 248
  br label %11

11:                                               ; preds = %.lr.ph, %Aig_ObjIsChoice.exit.thread
  %12 = phi ptr [ %7, %.lr.ph ], [ %54, %Aig_ObjIsChoice.exit.thread ]
  %indvars.iv = phi i64 [ 0, %.lr.ph ], [ %indvars.iv.next, %Aig_ObjIsChoice.exit.thread ]
  %13 = getelementptr i8, ptr %12, i64 8
  %.val34 = load ptr, ptr %13, align 8, !tbaa !15
  %14 = getelementptr inbounds nuw ptr, ptr %.val34, i64 %indvars.iv
  %15 = load ptr, ptr %14, align 8, !tbaa !18
  %16 = icmp eq ptr %15, null
  br i1 %16, label %Aig_ObjIsChoice.exit.thread, label %17

17:                                               ; preds = %11
  %18 = getelementptr i8, ptr %15, i64 24
  %.val35 = load i64, ptr %18, align 8
  %19 = trunc i64 %.val35 to i32
  %20 = and i32 %19, 7
  %21 = add nsw i32 %20, -7
  %narrow.i = icmp ult i32 %21, -2
  br i1 %narrow.i, label %Aig_ObjIsChoice.exit.thread, label %22

22:                                               ; preds = %17
  %.val36 = load ptr, ptr %10, align 8, !tbaa !139
  %.not.i = icmp eq ptr %.val36, null
  br i1 %.not.i, label %Aig_ObjIsChoice.exit.thread, label %23

23:                                               ; preds = %22
  %24 = getelementptr inbounds nuw i8, ptr %15, i64 36
  %25 = load i32, ptr %24, align 4, !tbaa !136
  %26 = sext i32 %25 to i64
  %27 = getelementptr inbounds ptr, ptr %.val36, i64 %26
  %28 = load ptr, ptr %27, align 8, !tbaa !137
  %.not4.i = icmp eq ptr %28, null
  %29 = and i64 %.val35, 4294967232
  %.not = icmp eq i64 %29, 0
  %or.cond = or i1 %.not, %.not4.i
  br i1 %or.cond, label %Aig_ObjIsChoice.exit.thread, label %Aig_ObjEquiv.exit

Aig_ObjEquiv.exit:                                ; preds = %23, %Aig_ObjEquiv.exit
  %.045 = phi i32 [ %30, %Aig_ObjEquiv.exit ], [ 0, %23 ]
  %.02844 = phi ptr [ %35, %Aig_ObjEquiv.exit ], [ %15, %23 ]
  %30 = add nuw nsw i32 %.045, 1
  %31 = getelementptr inbounds nuw i8, ptr %.02844, i64 36
  %32 = load i32, ptr %31, align 4, !tbaa !136
  %33 = sext i32 %32 to i64
  %34 = getelementptr inbounds ptr, ptr %.val36, i64 %33
  %35 = load ptr, ptr %34, align 8, !tbaa !137
  %.not31 = icmp eq ptr %35, null
  br i1 %.not31, label %36, label %Aig_ObjEquiv.exit, !llvm.loop !140

36:                                               ; preds = %Aig_ObjEquiv.exit
  %37 = lshr i64 %.val35, 32
  %38 = trunc nuw i64 %37 to i32
  %39 = and i32 %38, 16777215
  %40 = tail call i32 (ptr, ...) @printf(ptr noundef nonnull dereferenceable(1) @.str.8, i32 noundef %25, i32 noundef %39, i32 noundef %30)
  br label %41

41:                                               ; preds = %36, %Aig_ObjEquiv.exit41
  %.146 = phi ptr [ %15, %36 ], [ %53, %Aig_ObjEquiv.exit41 ]
  %42 = tail call i32 @Aig_NodeMffcSupp(ptr noundef %0, ptr noundef nonnull %.146, i32 noundef 0, ptr noundef nonnull %2) #24
  %.val = load i32, ptr %3, align 4, !tbaa !12
  %43 = getelementptr inbounds nuw i8, ptr %.146, i64 24
  %44 = load i64, ptr %43, align 8
  %45 = lshr i64 %44, 32
  %46 = trunc nuw i64 %45 to i32
  %47 = and i32 %46, 16777215
  %48 = tail call i32 (ptr, ...) @printf(ptr noundef nonnull dereferenceable(1) @.str.9, i32 noundef %.val, i32 noundef %42, i32 noundef %47)
  %.val38 = load ptr, ptr %10, align 8, !tbaa !139
  %.not.i40 = icmp eq ptr %.val38, null
  br i1 %.not.i40, label %Aig_ObjEquiv.exit41.thread, label %Aig_ObjEquiv.exit41

Aig_ObjEquiv.exit41:                              ; preds = %41
  %49 = getelementptr inbounds nuw i8, ptr %.146, i64 36
  %50 = load i32, ptr %49, align 4, !tbaa !136
  %51 = sext i32 %50 to i64
  %52 = getelementptr inbounds ptr, ptr %.val38, i64 %51
  %53 = load ptr, ptr %52, align 8, !tbaa !137
  %.not32 = icmp eq ptr %53, null
  br i1 %.not32, label %Aig_ObjEquiv.exit41.thread, label %41, !llvm.loop !141

Aig_ObjEquiv.exit41.thread:                       ; preds = %41, %Aig_ObjEquiv.exit41
  %puts = tail call i32 @puts(ptr nonnull dereferenceable(1) @str)
  %.pre = load ptr, ptr %6, align 8, !tbaa !54
  br label %Aig_ObjIsChoice.exit.thread

Aig_ObjIsChoice.exit.thread:                      ; preds = %22, %23, %Aig_ObjEquiv.exit41.thread, %17, %11
  %54 = phi ptr [ %12, %22 ], [ %12, %23 ], [ %.pre, %Aig_ObjEquiv.exit41.thread ], [ %12, %17 ], [ %12, %11 ]
  %indvars.iv.next = add nuw nsw i64 %indvars.iv, 1
  %55 = getelementptr i8, ptr %54, i64 4
  %.val33 = load i32, ptr %55, align 4, !tbaa !12
  %56 = sext i32 %.val33 to i64
  %57 = icmp slt i64 %indvars.iv.next, %56
  br i1 %57, label %11, label %.critedge.loopexit, !llvm.loop !142

.critedge.loopexit:                               ; preds = %Aig_ObjIsChoice.exit.thread
  %.pre50 = load ptr, ptr %5, align 8, !tbaa !15
  br label %.critedge

.critedge:                                        ; preds = %.critedge.loopexit, %1
  %58 = phi ptr [ %.pre50, %.critedge.loopexit ], [ %4, %1 ]
  %.not.i42 = icmp eq ptr %58, null
  br i1 %.not.i42, label %Vec_PtrFree.exit, label %59

59:                                               ; preds = %.critedge
  tail call void @free(ptr noundef nonnull %58) #24
  br label %Vec_PtrFree.exit

Vec_PtrFree.exit:                                 ; preds = %.critedge, %59
  tail call void @free(ptr noundef nonnull %2) #24
  ret void
}